target datalayout = "e-m:e-p270:32:32-p271:32:32-p272:64:64-i64:64-i128:128-f80:128-n8:16:32:64-S128"
target triple = "x86_64-pc-linux-gnu"

%struct._object = type { %union.anon, ptr }
%union.anon = type { i64 }
%struct.PyVarObject = type { %struct._object, i64 }
%struct.anon = type { i32, i32 }
%struct.PyTupleObject = type { %struct.PyVarObject, [1 x ptr] }
%struct.RandomObject = type { %struct._object, i32, [624 x i32] }

; Function Attrs: alwaysinline nounwind uwtable
define internal i32 @_Py_IsImmortal(ptr noundef %0) #4 {
  %2 = alloca ptr, align 8
  store ptr %0, ptr %2, align 8, !tbaa !3
  %3 = load ptr, ptr %2, align 8, !tbaa !3
  %4 = getelementptr inbounds nuw %struct._object, ptr %3, i32 0, i32 0
  %5 = getelementptr inbounds nuw %struct.anon, ptr %4, i32 0, i32 0
  %6 = load i32, ptr %5, align 8, !tbaa !16
  %7 = icmp slt i32 %6, 0
  %8 = zext i1 %7 to i32
  ret i32 %8
}

; Function Attrs: alwaysinline nounwind uwtable
define internal void @Py_DECREF(ptr noundef %0) #4 {
  %2 = alloca ptr, align 8
  store ptr %0, ptr %2, align 8, !tbaa !3
  %3 = load ptr, ptr %2, align 8, !tbaa !3
  %4 = call i32 @_Py_IsImmortal(ptr noundef %3)
  %5 = icmp ne i32 %4, 0
  br i1 %5, label %6, label %7

6:                                                ; preds = %1
  br label %16

7:                                                ; preds = %1
  %8 = load ptr, ptr %2, align 8, !tbaa !3
  %9 = getelementptr inbounds nuw %struct._object, ptr %8, i32 0, i32 0
  %10 = getelementptr inbounds nuw %struct.anon, ptr %9, i32 0, i32 0
  %11 = load i32, ptr %10, align 8, !tbaa !16
  %12 = add i32 %11, -1
  store i32 %12, ptr %10, align 8, !tbaa !16
  %13 = icmp eq i32 %12, 0
  br i1 %13, label %14, label %16

14:                                               ; preds = %7
  %15 = load ptr, ptr %2, align 8, !tbaa !3
  call void @_Py_Dealloc(ptr noundef %15)
  br label %16

16:                                               ; preds = %6, %14, %7
  ret void
}

; Function Attrs: inlinehint nounwind uwtable
define internal void @PyTuple_SET_ITEM(ptr noundef %0, i64 noundef %1, ptr noundef %2) #3 {
  %4 = alloca ptr, align 8
  %5 = alloca i64, align 8
  %6 = alloca ptr, align 8
  %7 = alloca ptr, align 8
  store ptr %0, ptr %4, align 8, !tbaa !3
  store i64 %1, ptr %5, align 8, !tbaa !31
  store ptr %2, ptr %6, align 8, !tbaa !3
  call void @llvm.lifetime.start.p0(i64 8, ptr %7) #7
  %8 = load ptr, ptr %4, align 8, !tbaa !3
  store ptr %8, ptr %7, align 8, !tbaa !8
  %9 = load ptr, ptr %6, align 8, !tbaa !3
  %10 = load ptr, ptr %7, align 8, !tbaa !8
  %11 = getelementptr inbounds nuw %struct.PyTupleObject, ptr %10, i32 0, i32 1
  %12 = load i64, ptr %5, align 8, !tbaa !31
  %13 = getelementptr [1 x ptr], ptr %11, i64 0, i64 %12
  store ptr %9, ptr %13, align 8, !tbaa !3
  call void @llvm.lifetime.end.p0(i64 8, ptr %7) #7
  ret void
}

; Function Attrs: nounwind uwtable
define internal ptr @_random_Random_getstate_impl(ptr noundef %0) #0 {
  %2 = alloca ptr, align 8
  %3 = alloca ptr, align 8
  %4 = alloca ptr, align 8
  %5 = alloca ptr, align 8
  %6 = alloca i32, align 4
  %7 = alloca i32, align 4
  store ptr %0, ptr %3, align 8, !tbaa !8
  call void @llvm.lifetime.start.p0(i64 8, ptr %4) #7
  call void @llvm.lifetime.start.p0(i64 8, ptr %5) #7
  call void @llvm.lifetime.start.p0(i64 4, ptr %6) #7
  %8 = call ptr @PyTuple_New(i64 noundef 625)
  store ptr %8, ptr %4, align 8, !tbaa !3
  %9 = load ptr, ptr %4, align 8, !tbaa !3
  %10 = icmp eq ptr %9, null
  br i1 %10, label %11, label %12

11:                                               ; preds = %1
  store ptr null, ptr %2, align 8
  store i32 1, ptr %7, align 4
  br label %53

12:                                               ; preds = %1
  store i32 0, ptr %6, align 4, !tbaa !11
  br label %13

13:                                               ; preds = %33, %12
  %14 = load i32, ptr %6, align 4, !tbaa !11
  %15 = icmp slt i32 %14, 624
  br i1 %15, label %16, label %36

16:                                               ; preds = %13
  %17 = load ptr, ptr %3, align 8, !tbaa !8
  %18 = getelementptr inbounds nuw %struct.RandomObject, ptr %17, i32 0, i32 2
  %19 = load i32, ptr %6, align 4, !tbaa !11
  %20 = sext i32 %19 to i64
  %21 = getelementptr [624 x i32], ptr %18, i64 0, i64 %20
  %22 = load i32, ptr %21, align 4, !tbaa !11
  %23 = zext i32 %22 to i64
  %24 = call ptr @PyLong_FromUnsignedLong(i64 noundef %23)
  store ptr %24, ptr %5, align 8, !tbaa !3
  %25 = load ptr, ptr %5, align 8, !tbaa !3
  %26 = icmp eq ptr %25, null
  br i1 %26, label %27, label %28

27:                                               ; preds = %16
  br label %51

28:                                               ; preds = %16
  %29 = load ptr, ptr %4, align 8, !tbaa !3
  %30 = load i32, ptr %6, align 4, !tbaa !11
  %31 = sext i32 %30 to i64
  %32 = load ptr, ptr %5, align 8, !tbaa !3
  call void @PyTuple_SET_ITEM(ptr noundef %29, i64 noundef %31, ptr noundef %32)
  br label %33

33:                                               ; preds = %28
  %34 = load i32, ptr %6, align 4, !tbaa !11
  %35 = add i32 %34, 1
  store i32 %35, ptr %6, align 4, !tbaa !11
  br label %13, !llvm.loop !45

36:                                               ; preds = %13
  %37 = load ptr, ptr %3, align 8, !tbaa !8
  %38 = getelementptr inbounds nuw %struct.RandomObject, ptr %37, i32 0, i32 1
  %39 = load i32, ptr %38, align 8, !tbaa !34
  %40 = sext i32 %39 to i64
  %41 = call ptr @PyLong_FromLong(i64 noundef %40)
  store ptr %41, ptr %5, align 8, !tbaa !3
  %42 = load ptr, ptr %5, align 8, !tbaa !3
  %43 = icmp eq ptr %42, null
  br i1 %43, label %44, label %45

44:                                               ; preds = %36
  br label %51

45:                                               ; preds = %36
  %46 = load ptr, ptr %4, align 8, !tbaa !3
  %47 = load i32, ptr %6, align 4, !tbaa !11
  %48 = sext i32 %47 to i64
  %49 = load ptr, ptr %5, align 8, !tbaa !3
  call void @PyTuple_SET_ITEM(ptr noundef %46, i64 noundef %48, ptr noundef %49)
  %50 = load ptr, ptr %4, align 8, !tbaa !3
  store ptr %50, ptr %2, align 8
  store i32 1, ptr %7, align 4
  br label %53

51:                                               ; preds = %44, %27
  %52 = load ptr, ptr %4, align 8, !tbaa !3
  call void @Py_DECREF(ptr noundef %52)
  store ptr null, ptr %2, align 8
  store i32 1, ptr %7, align 4
  br label %53

53:                                               ; preds = %51, %45, %11
  call void @llvm.lifetime.end.p0(i64 4, ptr %6) #7
  call void @llvm.lifetime.end.p0(i64 8, ptr %5) #7
  call void @llvm.lifetime.end.p0(i64 8, ptr %4) #7
  %54 = load ptr, ptr %2, align 8
  ret ptr %54
}

; Function Attrs: nounwind uwtable
define internal ptr @_random_Random_getstate(ptr noundef %0, ptr noundef %1) #0 {
  %3 = alloca ptr, align 8
  %4 = alloca ptr, align 8
  %5 = alloca ptr, align 8
  store ptr %0, ptr %3, align 8, !tbaa !3
  store ptr %1, ptr %4, align 8, !tbaa !3
  call void @llvm.lifetime.start.p0(i64 8, ptr %5) #7
  store ptr null, ptr %5, align 8, !tbaa !3
  %6 = load ptr, ptr %3, align 8, !tbaa !3
  %7 = call ptr @_random_Random_getstate_impl(ptr noundef %6)
  store ptr %7, ptr %5, align 8, !tbaa !3
  %8 = load ptr, ptr %5, align 8, !tbaa !3
  call void @llvm.lifetime.end.p0(i64 8, ptr %5) #7
  ret ptr %8
}