; Function Attrs: nounwind uwtable
define internal ptr @_random_Random_getstate(ptr noundef readonly captures(none) %0, ptr readnone captures(none) %1) #0 {
  %3 = tail call ptr @PyTuple_New(i64 noundef 625) #8
  %4 = icmp eq ptr %3, null
  br i1 %4, label %_random_Random_getstate_impl.exit, label %.preheader.i

.preheader.i:                                     ; preds = %2
  %5 = getelementptr inbounds nuw i8, ptr %0, i64 20
  %6 = getelementptr inbounds nuw i8, ptr %3, i64 24
  br label %7

7:                                                ; preds = %13, %.preheader.i
  %indvars.iv.i = phi i64 [ 0, %.preheader.i ], [ %indvars.iv.next.i, %13 ]
  %8 = getelementptr [624 x i32], ptr %5, i64 0, i64 %indvars.iv.i
  %9 = load i32, ptr %8, align 4, !tbaa !29
  %10 = zext i32 %9 to i64
  %11 = tail call ptr @PyLong_FromUnsignedLong(i64 noundef %10) #8
  %12 = icmp eq ptr %11, null
  br i1 %12, label %.loopexit.i, label %13

13:                                               ; preds = %7
  %14 = getelementptr [1 x ptr], ptr %6, i64 0, i64 %indvars.iv.i
  store ptr %11, ptr %14, align 8, !tbaa !14
  %indvars.iv.next.i = add nuw nsw i64 %indvars.iv.i, 1
  %exitcond.not.i = icmp eq i64 %indvars.iv.next.i, 624
  br i1 %exitcond.not.i, label %15, label %7, !llvm.loop !30

15:                                               ; preds = %13
  %16 = getelementptr inbounds nuw i8, ptr %0, i64 16
  %17 = load i32, ptr %16, align 8, !tbaa !32
  %18 = sext i32 %17 to i64
  %19 = tail call ptr @PyLong_FromLong(i64 noundef %18) #8
  %20 = icmp eq ptr %19, null
  br i1 %20, label %.loopexit.i, label %21

21:                                               ; preds = %15
  %22 = getelementptr i8, ptr %3, i64 5016
  store ptr %19, ptr %22, align 8, !tbaa !14
  br label %_random_Random_getstate_impl.exit

.loopexit.i:                                      ; preds = %7, %15
  %23 = load i32, ptr %3, align 8, !tbaa !15
  %.not.i.i = icmp sgt i32 %23, -1
  br i1 %.not.i.i, label %24, label %_random_Random_getstate_impl.exit

24:                                               ; preds = %.loopexit.i
  %25 = add nsw i32 %23, -1
  store i32 %25, ptr %3, align 8, !tbaa !15
  %26 = icmp eq i32 %25, 0
  br i1 %26, label %27, label %_random_Random_getstate_impl.exit

27:                                               ; preds = %24
  tail call void @_Py_Dealloc(ptr noundef nonnull %3) #8
  br label %_random_Random_getstate_impl.exit

_random_Random_getstate_impl.exit:                ; preds = %2, %21, %.loopexit.i, %24, %27
  %.016.i = phi ptr [ %3, %21 ], [ null, %2 ], [ null, %.loopexit.i ], [ null, %24 ], [ null, %27 ]
  ret ptr %.016.i
}